target datalayout = "e-m:e-p270:32:32-p271:32:32-p272:64:64-i64:64-i128:128-f80:128-n8:16:32:64-S128"
target triple = "x86_64-pc-linux-gnu"

%"class.llvm::TargetLoweringObjectFile" = type { %"class.llvm::MCObjectFileInfo", ptr, i8, i8, i8, i8, i32, i32, i32, i32, ptr, ptr, ptr }
%"class.llvm::MCObjectFileInfo" = type { ptr, i8, i8, i8, i32, i32, ptr, ptr, ptr, ptr, ptr, ptr, ptr, ptr, ptr, ptr, ptr, ptr, ptr, ptr, ptr, ptr, ptr, ptr, ptr, ptr, ptr, ptr, ptr, ptr, ptr, ptr, ptr, ptr, ptr, ptr, ptr, ptr, ptr, ptr, ptr, ptr, ptr, ptr, ptr, ptr, ptr, ptr, ptr, ptr, ptr, ptr, ptr, ptr, ptr, ptr, ptr, ptr, ptr, ptr, ptr, ptr, ptr, ptr, ptr, ptr, ptr, ptr, ptr, ptr, ptr, ptr, ptr, ptr, ptr, ptr, ptr, ptr, ptr, ptr, ptr, ptr, ptr, ptr, ptr, ptr, ptr, ptr, ptr, ptr, ptr, ptr, ptr, ptr, ptr, ptr, ptr, ptr, ptr, ptr, ptr, ptr, ptr, ptr, %"struct.std::array", i8, ptr }
%"struct.std::array" = type { [11 x ptr] }
%"class.llvm::Twine" = type <{ %"union.llvm::Twine::Child", %"union.llvm::Twine::Child", i8, i8, [6 x i8] }>
%"union.llvm::Twine::Child" = type { %struct.anon }
%struct.anon = type { ptr, i64 }
%"class.llvm::SectionKind" = type { i8, [3 x i8] }

@.str.21 = private unnamed_addr constant [12 x i8] c".init_array\00", align 1
@.str.41 = private unnamed_addr constant [1 x i8] zeroinitializer, align 1

; Function Attrs: mustprogress nounwind uwtable
define linkonce_odr hidden i32 @_ZN4llvm11SectionKind3getENS0_4KindE(i32 noundef %0) #1 comdat align 2 {
  %2 = alloca %"class.llvm::SectionKind", align 4
  %3 = alloca i32, align 4
  store i32 %0, ptr %3, align 4
  %4 = load i32, ptr %3, align 4
  %5 = trunc i32 %4 to i8
  store i8 %5, ptr %2, align 4
  %6 = load i32, ptr %2, align 4
  ret i32 %6
}

; Function Attrs: mustprogress nounwind uwtable
define linkonce_odr hidden noundef ptr @_ZN4llvm9MCContext14getWasmSectionERKNS_5TwineENS_11SectionKindEj(ptr noundef nonnull align 8 dereferenceable(2432) %0, ptr noundef nonnull align 8 dereferenceable(34) %1, i32 %2, i32 noundef %3) #1 comdat align 2 {
  %5 = alloca %"class.llvm::SectionKind", align 4
  %6 = alloca ptr, align 8
  %7 = alloca ptr, align 8
  %8 = alloca i32, align 4
  %9 = alloca %"class.llvm::SectionKind", align 4
  %10 = alloca %"class.llvm::Twine", align 8
  store i32 %2, ptr %5, align 4
  store ptr %0, ptr %6, align 8
  store ptr %1, ptr %7, align 8
  store i32 %3, ptr %8, align 4
  %11 = load ptr, ptr %6, align 8
  %12 = load ptr, ptr %7, align 8
  call void @llvm.memcpy.p0.p0.i64(ptr align 4 %9, ptr align 4 %5, i64 4, i1 false)
  %13 = load i32, ptr %8, align 4
  call void @_ZN4llvm5TwineC2EPKc(ptr noundef nonnull align 8 dereferenceable(34) %10, ptr noundef @.str.41)
  %14 = load i32, ptr %9, align 4
  %15 = call noundef ptr @_ZN4llvm9MCContext14getWasmSectionERKNS_5TwineENS_11SectionKindEjS3_j(ptr noundef nonnull align 8 dereferenceable(2432) %11, ptr noundef nonnull align 8 dereferenceable(34) %12, i32 %14, i32 noundef %13, ptr noundef nonnull align 8 dereferenceable(34) %10, i32 noundef -1)
  ret ptr %15
}

; Function Attrs: mustprogress nounwind uwtable
define linkonce_odr hidden i32 @_ZN4llvm11SectionKind7getDataEv() #1 comdat align 2 {
  %1 = alloca %"class.llvm::SectionKind", align 4
  %2 = call i32 @_ZN4llvm11SectionKind3getENS0_4KindE(i32 noundef 19)
  %3 = trunc i32 %2 to i8
  store i8 %3, ptr %1, align 4
  %4 = load i32, ptr %1, align 4
  ret i32 %4
}

; Function Attrs: mustprogress nounwind uwtable
define linkonce_odr hidden void @_ZN4llvm5TwineC2EPKc(ptr noundef nonnull align 8 dereferenceable(34) %0, ptr noundef %1) unnamed_addr #1 comdat align 2 {
  %3 = alloca ptr, align 8
  %4 = alloca ptr, align 8
  store ptr %0, ptr %3, align 8
  store ptr %1, ptr %4, align 8
  %5 = load ptr, ptr %3, align 8
  %6 = getelementptr inbounds nuw %"class.llvm::Twine", ptr %5, i32 0, i32 2
  store i8 1, ptr %6, align 8
  %7 = getelementptr inbounds nuw %"class.llvm::Twine", ptr %5, i32 0, i32 3
  store i8 1, ptr %7, align 1
  %8 = load ptr, ptr %4, align 8
  %9 = getelementptr inbounds i8, ptr %8, i64 0
  %10 = load i8, ptr %9, align 1
  %11 = sext i8 %10 to i32
  %12 = icmp ne i32 %11, 0
  br i1 %12, label %13, label %17

13:                                               ; preds = %2
  %14 = load ptr, ptr %4, align 8
  %15 = getelementptr inbounds nuw %"class.llvm::Twine", ptr %5, i32 0, i32 0
  store ptr %14, ptr %15, align 8
  %16 = getelementptr inbounds nuw %"class.llvm::Twine", ptr %5, i32 0, i32 2
  store i8 3, ptr %16, align 8
  br label %19

17:                                               ; preds = %2
  %18 = getelementptr inbounds nuw %"class.llvm::Twine", ptr %5, i32 0, i32 2
  store i8 1, ptr %18, align 8
  br label %19

19:                                               ; preds = %17, %13
  ret void
}

; Function Attrs: mustprogress nounwind uwtable
define linkonce_odr hidden noundef nonnull align 8 dereferenceable(2432) ptr @_ZNK4llvm16MCObjectFileInfo10getContextEv(ptr noundef nonnull align 8 dereferenceable(912) %0) #1 comdat align 2 {
  %2 = alloca ptr, align 8
  store ptr %0, ptr %2, align 8
  %3 = load ptr, ptr %2, align 8
  %4 = getelementptr inbounds nuw %"class.llvm::MCObjectFileInfo", ptr %3, i32 0, i32 106
  %5 = load ptr, ptr %4, align 8
  ret ptr %5
}

; Function Attrs: mustprogress nounwind uwtable
define dso_local void @_ZN4llvm28TargetLoweringObjectFileWasm14InitializeWasmEv(ptr noundef nonnull align 8 dereferenceable(1024) %0) #1 align 2 {
  %2 = alloca ptr, align 8
  %3 = alloca %"class.llvm::Twine", align 8
  %4 = alloca %"class.llvm::SectionKind", align 4
  store ptr %0, ptr %2, align 8
  %5 = load ptr, ptr %2, align 8
  %6 = call noundef nonnull align 8 dereferenceable(2432) ptr @_ZNK4llvm16MCObjectFileInfo10getContextEv(ptr noundef nonnull align 8 dereferenceable(912) %5)
  call void @_ZN4llvm5TwineC2EPKc(ptr noundef nonnull align 8 dereferenceable(34) %3, ptr noundef @.str.21)
  %7 = call i32 @_ZN4llvm11SectionKind7getDataEv()
  %8 = trunc i32 %7 to i8
  store i8 %8, ptr %4, align 4
  %9 = load i32, ptr %4, align 4
  %10 = call noundef ptr @_ZN4llvm9MCContext14getWasmSectionERKNS_5TwineENS_11SectionKindEj(ptr noundef nonnull align 8 dereferenceable(2432) %6, ptr noundef nonnull align 8 dereferenceable(34) %3, i32 %9, i32 noundef 0)
  %11 = getelementptr inbounds nuw %"class.llvm::TargetLoweringObjectFile", ptr %5, i32 0, i32 10
  store ptr %10, ptr %11, align 8
  %12 = getelementptr inbounds nuw %"class.llvm::TargetLoweringObjectFile", ptr %5, i32 0, i32 8
  store i32 0, ptr %12, align 4
  ret void
}