; Function Attrs: mustprogress nounwind uwtable
define dso_local void @_ZN4llvm28TargetLoweringObjectFileWasm14InitializeWasmEv(ptr nocapture noundef nonnull align 8 dereferenceable(1024) %0) local_unnamed_addr #0 align 2 {
  %2 = alloca %"class.llvm::Twine", align 8
  %3 = alloca %"class.llvm::Twine", align 8
  %4 = getelementptr inbounds nuw i8, ptr %0, i64 904
  %5 = load ptr, ptr %4, align 8
  %6 = getelementptr inbounds nuw i8, ptr %3, i64 32
  %7 = getelementptr inbounds nuw i8, ptr %3, i64 33
  store i8 1, ptr %7, align 1
  store ptr @.str.21, ptr %3, align 8
  store i8 3, ptr %6, align 8
  call void @llvm.lifetime.start.p0(i64 40, ptr nonnull %2)
  %8 = getelementptr inbounds nuw i8, ptr %2, i64 32
  store i16 257, ptr %8, align 8
  %9 = call noundef ptr @_ZN4llvm9MCContext14getWasmSectionERKNS_5TwineENS_11SectionKindEjS3_j(ptr noundef nonnull align 8 dereferenceable(2432) %5, ptr noundef nonnull align 8 dereferenceable(34) %3, i32 19, i32 noundef 0, ptr noundef nonnull align 8 dereferenceable(34) %2, i32 noundef -1) #24
  call void @llvm.lifetime.end.p0(i64 40, ptr nonnull %2)
  %10 = getelementptr inbounds nuw i8, ptr %0, i64 944
  store ptr %9, ptr %10, align 8
  %11 = getelementptr inbounds nuw i8, ptr %0, i64 932
  store i32 0, ptr %11, align 4
  ret void
}